target datalayout = "e-m:e-p270:32:32-p271:32:32-p272:64:64-i64:64-i128:128-f80:128-n8:16:32:64-S128"
target triple = "x86_64-pc-linux-gnu"

%struct.evp_pkey_asn1_method_st = type { i32, i32, i64, ptr, ptr, ptr, ptr, ptr, ptr, ptr, ptr, ptr, ptr, ptr, ptr, ptr, ptr, ptr, ptr, ptr, ptr, ptr, ptr, ptr, ptr, ptr, ptr, ptr, ptr, ptr, ptr, ptr, ptr, ptr, ptr, ptr, ptr, ptr, ptr, ptr, ptr }
%struct.dh_st = type { i32, i32, %struct.ffc_params_st, i32, ptr, ptr, i32, ptr, %struct.CRYPTO_REF_COUNT, %struct.crypto_ex_data_st, ptr, ptr, ptr, ptr, i64 }
%struct.ffc_params_st = type { ptr, ptr, ptr, ptr, ptr, i64, i32, i32, i32, i32, i32, ptr, ptr, i32 }
%struct.CRYPTO_REF_COUNT = type { i32 }
%struct.crypto_ex_data_st = type { ptr, ptr }
%struct.asn1_string_st = type { i32, i32, ptr, i64 }
%struct.evp_pkey_st = type { i32, i32, ptr, ptr, ptr, %union.legacy_pkey_st, %union.legacy_pkey_st, %struct.CRYPTO_REF_COUNT, ptr, ptr, i32, i8, %struct.crypto_ex_data_st, ptr, ptr, i64, ptr, i64, %struct.anon }
%union.legacy_pkey_st = type { ptr }
%struct.anon = type { i32, i32, i32 }

@.str.11 = private unnamed_addr constant [32 x i8] c"../openssl/crypto/dh/dh_ameth.c\00", align 1
@__func__.dh_priv_encode = private unnamed_addr constant [15 x i8] c"dh_priv_encode\00", align 1

; Function Attrs: nounwind uwtable
define internal i32 @i2d_dhp(ptr noundef %0, ptr noundef %1, ptr noundef %2) #0 {
  %4 = alloca i32, align 4
  %5 = alloca ptr, align 8
  %6 = alloca ptr, align 8
  %7 = alloca ptr, align 8
  store ptr %0, ptr %5, align 8, !tbaa !32
  store ptr %1, ptr %6, align 8, !tbaa !3
  store ptr %2, ptr %7, align 8, !tbaa !59
  %8 = load ptr, ptr %5, align 8, !tbaa !32
  %9 = getelementptr inbounds nuw %struct.evp_pkey_st, ptr %8, i32 0, i32 2
  %10 = load ptr, ptr %9, align 8, !tbaa !44
  %11 = icmp eq ptr %10, @ossl_dhx_asn1_meth
  br i1 %11, label %12, label %16

12:                                               ; preds = %3
  %13 = load ptr, ptr %6, align 8, !tbaa !3
  %14 = load ptr, ptr %7, align 8, !tbaa !59
  %15 = call i32 @i2d_DHxparams(ptr noundef %13, ptr noundef %14)
  store i32 %15, ptr %4, align 4
  br label %20

16:                                               ; preds = %3
  %17 = load ptr, ptr %6, align 8, !tbaa !3
  %18 = load ptr, ptr %7, align 8, !tbaa !59
  %19 = call i32 @i2d_DHparams(ptr noundef %17, ptr noundef %18)
  store i32 %19, ptr %4, align 4
  br label %20

20:                                               ; preds = %16, %12
  %21 = load i32, ptr %4, align 4
  ret i32 %21
}

; Function Attrs: nounwind uwtable
define internal i32 @dh_priv_encode(ptr noundef %0, ptr noundef %1) #0 {
  %3 = alloca i32, align 4
  %4 = alloca ptr, align 8
  %5 = alloca ptr, align 8
  %6 = alloca ptr, align 8
  %7 = alloca ptr, align 8
  %8 = alloca ptr, align 8
  %9 = alloca i32, align 4
  %10 = alloca i32, align 4
  store ptr %0, ptr %4, align 8, !tbaa !56
  store ptr %1, ptr %5, align 8, !tbaa !32
  call void @llvm.lifetime.start.p0(i64 8, ptr %6) #4
  store ptr null, ptr %6, align 8, !tbaa !36
  call void @llvm.lifetime.start.p0(i64 8, ptr %7) #4
  store ptr null, ptr %7, align 8, !tbaa !36
  call void @llvm.lifetime.start.p0(i64 8, ptr %8) #4
  store ptr null, ptr %8, align 8, !tbaa !27
  call void @llvm.lifetime.start.p0(i64 4, ptr %9) #4
  %11 = call ptr @ASN1_STRING_new()
  store ptr %11, ptr %6, align 8, !tbaa !36
  %12 = load ptr, ptr %6, align 8, !tbaa !36
  %13 = icmp eq ptr %12, null
  br i1 %13, label %14, label %15

14:                                               ; preds = %2
  call void @ERR_new()
  call void @ERR_set_debug(ptr noundef @.str.11, i32 noundef 187, ptr noundef @__func__.dh_priv_encode)
  call void (i32, i32, ptr, ...) @ERR_set_error(i32 noundef 5, i32 noundef 524301, ptr noundef null)
  br label %67

15:                                               ; preds = %2
  %16 = load ptr, ptr %5, align 8, !tbaa !32
  %17 = load ptr, ptr %5, align 8, !tbaa !32
  %18 = getelementptr inbounds nuw %struct.evp_pkey_st, ptr %17, i32 0, i32 5
  %19 = load ptr, ptr %18, align 8, !tbaa !53
  %20 = load ptr, ptr %6, align 8, !tbaa !36
  %21 = getelementptr inbounds nuw %struct.asn1_string_st, ptr %20, i32 0, i32 2
  %22 = call i32 @i2d_dhp(ptr noundef %16, ptr noundef %19, ptr noundef %21)
  %23 = load ptr, ptr %6, align 8, !tbaa !36
  %24 = getelementptr inbounds nuw %struct.asn1_string_st, ptr %23, i32 0, i32 0
  store i32 %22, ptr %24, align 8, !tbaa !43
  %25 = load ptr, ptr %6, align 8, !tbaa !36
  %26 = getelementptr inbounds nuw %struct.asn1_string_st, ptr %25, i32 0, i32 0
  %27 = load i32, ptr %26, align 8, !tbaa !43
  %28 = icmp sle i32 %27, 0
  br i1 %28, label %29, label %30

29:                                               ; preds = %15
  call void @ERR_new()
  call void @ERR_set_debug(ptr noundef @.str.11, i32 noundef 193, ptr noundef @__func__.dh_priv_encode)
  call void (i32, i32, ptr, ...) @ERR_set_error(i32 noundef 5, i32 noundef 524301, ptr noundef null)
  br label %67

30:                                               ; preds = %15
  %31 = load ptr, ptr %6, align 8, !tbaa !36
  %32 = getelementptr inbounds nuw %struct.asn1_string_st, ptr %31, i32 0, i32 1
  store i32 16, ptr %32, align 4, !tbaa !58
  %33 = load ptr, ptr %5, align 8, !tbaa !32
  %34 = getelementptr inbounds nuw %struct.evp_pkey_st, ptr %33, i32 0, i32 5
  %35 = load ptr, ptr %34, align 8, !tbaa !53
  %36 = getelementptr inbounds nuw %struct.dh_st, ptr %35, i32 0, i32 5
  %37 = load ptr, ptr %36, align 8, !tbaa !28
  %38 = call ptr @BN_to_ASN1_INTEGER(ptr noundef %37, ptr noundef null)
  store ptr %38, ptr %7, align 8, !tbaa !36
  %39 = load ptr, ptr %7, align 8, !tbaa !36
  %40 = icmp eq ptr %39, null
  br i1 %40, label %41, label %42

41:                                               ; preds = %30
  call void @ERR_new()
  call void @ERR_set_debug(ptr noundef @.str.11, i32 noundef 202, ptr noundef @__func__.dh_priv_encode)
  call void (i32, i32, ptr, ...) @ERR_set_error(i32 noundef 5, i32 noundef 106, ptr noundef null)
  br label %67

42:                                               ; preds = %30
  %43 = load ptr, ptr %7, align 8, !tbaa !36
  %44 = call i32 @i2d_ASN1_INTEGER(ptr noundef %43, ptr noundef %8)
  store i32 %44, ptr %9, align 4, !tbaa !8
  %45 = load ptr, ptr %7, align 8, !tbaa !36
  call void @ASN1_STRING_clear_free(ptr noundef %45)
  %46 = load i32, ptr %9, align 4, !tbaa !8
  %47 = icmp sle i32 %46, 0
  br i1 %47, label %48, label %49

48:                                               ; preds = %42
  call void @ERR_new()
  call void @ERR_set_debug(ptr noundef @.str.11, i32 noundef 211, ptr noundef @__func__.dh_priv_encode)
  call void (i32, i32, ptr, ...) @ERR_set_error(i32 noundef 5, i32 noundef 106, ptr noundef null)
  br label %67

49:                                               ; preds = %42
  %50 = load ptr, ptr %4, align 8, !tbaa !56
  %51 = load ptr, ptr %5, align 8, !tbaa !32
  %52 = getelementptr inbounds nuw %struct.evp_pkey_st, ptr %51, i32 0, i32 2
  %53 = load ptr, ptr %52, align 8, !tbaa !44
  %54 = getelementptr inbounds nuw %struct.evp_pkey_asn1_method_st, ptr %53, i32 0, i32 0
  %55 = load i32, ptr %54, align 8, !tbaa !51
  %56 = call ptr @OBJ_nid2obj(i32 noundef %55)
  %57 = load ptr, ptr %6, align 8, !tbaa !36
  %58 = load ptr, ptr %8, align 8, !tbaa !27
  %59 = load i32, ptr %9, align 4, !tbaa !8
  %60 = call i32 @PKCS8_pkey_set0(ptr noundef %50, ptr noundef %56, i32 noundef 0, i32 noundef 16, ptr noundef %57, ptr noundef %58, i32 noundef %59)
  %61 = icmp ne i32 %60, 0
  br i1 %61, label %66, label %62

62:                                               ; preds = %49
  %63 = load ptr, ptr %8, align 8, !tbaa !27
  %64 = load i32, ptr %9, align 4, !tbaa !8
  %65 = sext i32 %64 to i64
  call void @CRYPTO_clear_free(ptr noundef %63, i64 noundef %65, ptr noundef @.str.11, i32 noundef 217)
  br label %67

66:                                               ; preds = %49
  store i32 1, ptr %3, align 4
  store i32 1, ptr %10, align 4
  br label %69

67:                                               ; preds = %62, %48, %41, %29, %14
  %68 = load ptr, ptr %6, align 8, !tbaa !36
  call void @ASN1_STRING_free(ptr noundef %68)
  store i32 0, ptr %3, align 4
  store i32 1, ptr %10, align 4
  br label %69

69:                                               ; preds = %67, %66
  call void @llvm.lifetime.end.p0(i64 4, ptr %9) #4
  call void @llvm.lifetime.end.p0(i64 8, ptr %8) #4
  call void @llvm.lifetime.end.p0(i64 8, ptr %7) #4
  call void @llvm.lifetime.end.p0(i64 8, ptr %6) #4
  %70 = load i32, ptr %3, align 4
  ret i32 %70
}