; Function Attrs: nounwind uwtable
define internal range(i32 0, 2) i32 @dh_priv_encode(ptr noundef %0, ptr noundef readonly captures(none) %1) #0 {
  %3 = alloca ptr, align 8
  call void @llvm.lifetime.start.p0(i64 8, ptr nonnull %3) #5
  store ptr null, ptr %3, align 8, !tbaa !31
  %4 = tail call ptr @ASN1_STRING_new() #5
  %5 = icmp eq ptr %4, null
  br i1 %5, label %6, label %7

6:                                                ; preds = %2
  tail call void @ERR_new() #5
  tail call void @ERR_set_debug(ptr noundef nonnull @.str.11, i32 noundef 187, ptr noundef nonnull @__func__.dh_priv_encode) #5
  tail call void (i32, i32, ptr, ...) @ERR_set_error(i32 noundef 5, i32 noundef 524301, ptr noundef null) #5
  br label %40

7:                                                ; preds = %2
  %8 = getelementptr inbounds nuw i8, ptr %1, i64 32
  %9 = load ptr, ptr %8, align 8, !tbaa !42
  %10 = getelementptr inbounds nuw i8, ptr %4, i64 8
  %11 = getelementptr i8, ptr %1, i64 8
  %.val = load ptr, ptr %11, align 8, !tbaa !33
  %12 = icmp eq ptr %.val, @ossl_dhx_asn1_meth
  br i1 %12, label %13, label %15

13:                                               ; preds = %7
  %14 = tail call i32 @i2d_DHxparams(ptr noundef %9, ptr noundef nonnull %10) #5
  br label %i2d_dhp.exit

15:                                               ; preds = %7
  %16 = tail call i32 @i2d_DHparams(ptr noundef %9, ptr noundef nonnull %10) #5
  br label %i2d_dhp.exit

i2d_dhp.exit:                                     ; preds = %13, %15
  %.0.i = phi i32 [ %14, %13 ], [ %16, %15 ]
  store i32 %.0.i, ptr %4, align 8, !tbaa !32
  %17 = icmp slt i32 %.0.i, 1
  br i1 %17, label %18, label %19

18:                                               ; preds = %i2d_dhp.exit
  tail call void @ERR_new() #5
  tail call void @ERR_set_debug(ptr noundef nonnull @.str.11, i32 noundef 193, ptr noundef nonnull @__func__.dh_priv_encode) #5
  tail call void (i32, i32, ptr, ...) @ERR_set_error(i32 noundef 5, i32 noundef 524301, ptr noundef null) #5
  br label %40

19:                                               ; preds = %i2d_dhp.exit
  %20 = getelementptr inbounds nuw i8, ptr %4, i64 4
  store i32 16, ptr %20, align 4, !tbaa !43
  %21 = load ptr, ptr %8, align 8, !tbaa !42
  %22 = getelementptr inbounds nuw i8, ptr %21, i64 120
  %23 = load ptr, ptr %22, align 8, !tbaa !22
  %24 = tail call ptr @BN_to_ASN1_INTEGER(ptr noundef %23, ptr noundef null) #5
  %25 = icmp eq ptr %24, null
  br i1 %25, label %26, label %27

26:                                               ; preds = %19
  tail call void @ERR_new() #5
  tail call void @ERR_set_debug(ptr noundef nonnull @.str.11, i32 noundef 202, ptr noundef nonnull @__func__.dh_priv_encode) #5
  tail call void (i32, i32, ptr, ...) @ERR_set_error(i32 noundef 5, i32 noundef 106, ptr noundef null) #5
  br label %40

27:                                               ; preds = %19
  %28 = call i32 @i2d_ASN1_INTEGER(ptr noundef nonnull %24, ptr noundef nonnull %3) #5
  call void @ASN1_STRING_clear_free(ptr noundef nonnull %24) #5
  %29 = icmp slt i32 %28, 1
  br i1 %29, label %30, label %31

30:                                               ; preds = %27
  call void @ERR_new() #5
  call void @ERR_set_debug(ptr noundef nonnull @.str.11, i32 noundef 211, ptr noundef nonnull @__func__.dh_priv_encode) #5
  call void (i32, i32, ptr, ...) @ERR_set_error(i32 noundef 5, i32 noundef 106, ptr noundef null) #5
  br label %40

31:                                               ; preds = %27
  %32 = load ptr, ptr %11, align 8, !tbaa !33
  %33 = load i32, ptr %32, align 8, !tbaa !40
  %34 = call ptr @OBJ_nid2obj(i32 noundef %33) #5
  %35 = load ptr, ptr %3, align 8, !tbaa !31
  %36 = call i32 @PKCS8_pkey_set0(ptr noundef %0, ptr noundef %34, i32 noundef 0, i32 noundef 16, ptr noundef nonnull %4, ptr noundef %35, i32 noundef %28) #5
  %.not = icmp eq i32 %36, 0
  br i1 %.not, label %37, label %41

37:                                               ; preds = %31
  %38 = load ptr, ptr %3, align 8, !tbaa !31
  %39 = zext nneg i32 %28 to i64
  call void @CRYPTO_clear_free(ptr noundef %38, i64 noundef %39, ptr noundef nonnull @.str.11, i32 noundef 217) #5
  br label %40

40:                                               ; preds = %37, %30, %26, %18, %6
  call void @ASN1_STRING_free(ptr noundef %4) #5
  br label %41

41:                                               ; preds = %31, %40
  %.0 = phi i32 [ 0, %40 ], [ 1, %31 ]
  call void @llvm.lifetime.end.p0(i64 8, ptr nonnull %3) #5
  ret i32 %.0
}